target datalayout = "e-m:e-p270:32:32-p271:32:32-p272:64:64-i64:64-i128:128-f80:128-n8:16:32:64-S128"
target triple = "x86_64-pc-linux-gnu"

%struct.lean_object = type { i32, i32 }
%struct.lean_ctor_object = type { %struct.lean_object, [0 x ptr] }

; Function Attrs: inlinehint nounwind uwtable
define internal ptr @lean_to_ctor(ptr noundef %0) #0 {
  %2 = alloca ptr, align 8
  store ptr %0, ptr %2, align 8, !tbaa !4
  %3 = load ptr, ptr %2, align 8, !tbaa !4
  ret ptr %3
}

; Function Attrs: inlinehint nounwind uwtable
define internal ptr @lean_ctor_obj_cptr(ptr noundef %0) #0 {
  %2 = alloca ptr, align 8
  store ptr %0, ptr %2, align 8, !tbaa !4
  %3 = load ptr, ptr %2, align 8, !tbaa !4
  %4 = call ptr @lean_to_ctor(ptr noundef %3)
  %5 = getelementptr inbounds nuw %struct.lean_ctor_object, ptr %4, i32 0, i32 1
  %6 = getelementptr inbounds [0 x ptr], ptr %5, i64 0, i64 0
  ret ptr %6
}

; Function Attrs: inlinehint nounwind uwtable
define internal zeroext i8 @lean_ctor_get_uint8(ptr noundef %0, i32 noundef %1) #0 {
  %3 = alloca ptr, align 8
  %4 = alloca i32, align 4
  store ptr %0, ptr %3, align 8, !tbaa !4
  store i32 %1, ptr %4, align 4, !tbaa !10
  %5 = load ptr, ptr %3, align 8, !tbaa !4
  %6 = call ptr @lean_ctor_obj_cptr(ptr noundef %5)
  %7 = load i32, ptr %4, align 4, !tbaa !10
  %8 = zext i32 %7 to i64
  %9 = getelementptr inbounds nuw i8, ptr %6, i64 %8
  %10 = load i8, ptr %9, align 1, !tbaa !14
  ret i8 %10
}

; Function Attrs: nounwind uwtable
define zeroext i8 @l_Lean_Elab_Tactic_GuardMsgs_parseGuardMsgsFilterSeverity___elambda__3(ptr noundef %0) #2 {
  %2 = alloca i8, align 1
  %3 = alloca ptr, align 8
  %4 = alloca i8, align 1
  %5 = alloca i8, align 1
  %6 = alloca i8, align 1
  %7 = alloca i8, align 1
  %8 = alloca i32, align 4
  %9 = alloca i8, align 1
  store ptr %0, ptr %3, align 8, !tbaa !4
  br label %10

10:                                               ; preds = %1
  call void @llvm.lifetime.start.p0(i64 1, ptr %4) #8
  %11 = load ptr, ptr %3, align 8, !tbaa !4
  %12 = call zeroext i8 @l_Lean_Message_isTrace(ptr noundef %11)
  store i8 %12, ptr %4, align 1, !tbaa !14
  %13 = load i8, ptr %4, align 1, !tbaa !14
  %14 = zext i8 %13 to i32
  %15 = icmp eq i32 %14, 0
  br i1 %15, label %16, label %23

16:                                               ; preds = %10
  call void @llvm.lifetime.start.p0(i64 1, ptr %5) #8
  call void @llvm.lifetime.start.p0(i64 1, ptr %6) #8
  call void @llvm.lifetime.start.p0(i64 1, ptr %7) #8
  %17 = load ptr, ptr %3, align 8, !tbaa !4
  %18 = call zeroext i8 @lean_ctor_get_uint8(ptr noundef %17, i32 noundef 41)
  store i8 %18, ptr %5, align 1, !tbaa !14
  store i8 1, ptr %6, align 1, !tbaa !14
  %19 = load i8, ptr %5, align 1, !tbaa !14
  %20 = load i8, ptr %6, align 1, !tbaa !14
  %21 = call zeroext i8 @l_Lean_beqMessageSeverity____x40_Lean_Message___hyg_107_(i8 noundef zeroext %19, i8 noundef zeroext %20)
  store i8 %21, ptr %7, align 1, !tbaa !14
  %22 = load i8, ptr %7, align 1, !tbaa !14
  store i8 %22, ptr %2, align 1
  store i32 1, ptr %8, align 4
  call void @llvm.lifetime.end.p0(i64 1, ptr %7) #8
  call void @llvm.lifetime.end.p0(i64 1, ptr %6) #8
  call void @llvm.lifetime.end.p0(i64 1, ptr %5) #8
  br label %25

23:                                               ; preds = %10
  call void @llvm.lifetime.start.p0(i64 1, ptr %9) #8
  store i8 0, ptr %9, align 1, !tbaa !14
  %24 = load i8, ptr %9, align 1, !tbaa !14
  store i8 %24, ptr %2, align 1
  store i32 1, ptr %8, align 4
  call void @llvm.lifetime.end.p0(i64 1, ptr %9) #8
  br label %25

25:                                               ; preds = %23, %16
  call void @llvm.lifetime.end.p0(i64 1, ptr %4) #8
  %26 = load i8, ptr %2, align 1
  ret i8 %26
}