; Function Attrs: nounwind uwtable
define zeroext i8 @l_Lean_Elab_Tactic_GuardMsgs_parseGuardMsgsFilterSeverity___elambda__3(ptr noundef %0) local_unnamed_addr #0 {
  %2 = tail call zeroext i8 @l_Lean_Message_isTrace(ptr noundef %0) #7
  %3 = icmp eq i8 %2, 0
  br i1 %3, label %4, label %8

4:                                                ; preds = %1
  %5 = getelementptr inbounds nuw i8, ptr %0, i64 49
  %6 = load i8, ptr %5, align 1, !tbaa !14
  %7 = tail call zeroext i8 @l_Lean_beqMessageSeverity____x40_Lean_Message___hyg_107_(i8 noundef zeroext %6, i8 noundef zeroext 1) #7
  br label %8

8:                                                ; preds = %1, %4
  %.0 = phi i8 [ %7, %4 ], [ 0, %1 ]
  ret i8 %.0
}